target datalayout = "e-m:e-p270:32:32-p271:32:32-p272:64:64-i64:64-i128:128-f80:128-n8:16:32:64-S128"
target triple = "x86_64-pc-linux-gnu"

%struct.darktable_t = type { %struct.dt_codepath_t, i32, i32, ptr, ptr, ptr, ptr, ptr, ptr, ptr, ptr, ptr, ptr, ptr, ptr, ptr, ptr, ptr, ptr, ptr, ptr, ptr, ptr, ptr, ptr, ptr, ptr, ptr, ptr, ptr, [64 x %struct.dt_pthread_mutex_t], %struct.dt_pthread_mutex_t, %struct.dt_pthread_mutex_t, %struct.dt_pthread_mutex_t, %struct.dt_pthread_mutex_t, %struct.dt_pthread_mutex_t, ptr, ptr, ptr, ptr, ptr, ptr, ptr, ptr, ptr, ptr, ptr, ptr, ptr, %struct.dt_lua_state_t, ptr, double, ptr, i32, [47 x i32], i32, i32, ptr, ptr, %struct.dt_sys_resources_t, %struct.dt_backthumb_t, %struct.dt_gimp_t }
%struct.dt_codepath_t = type { i8, [3 x i8] }
%struct.dt_pthread_mutex_t = type { %union.pthread_mutex_t }
%union.pthread_mutex_t = type { %struct.__pthread_mutex_s }
%struct.__pthread_mutex_s = type { i32, i32, i32, i32, i32, i16, i16, %struct.__pthread_internal_list }
%struct.__pthread_internal_list = type { ptr, ptr }
%struct.dt_lua_state_t = type { i32 }
%struct.dt_sys_resources_t = type { i64, i64, ptr, ptr, i32 }
%struct.dt_backthumb_t = type { double, double, i32, i32, i32, i32 }
%struct.dt_gimp_t = type { i32, ptr, ptr, i32, i32 }
%struct.dt_view_manager_t = type { ptr, ptr, ptr, %struct.dt_history_copy_item_t, %struct.anon, %struct.dt_act_on_cache_t, %struct.dt_act_on_cache_t, %struct.anon.0, %struct.anon.1, ptr, ptr, ptr, ptr, ptr, %struct.anon.2 }
%struct.dt_history_copy_item_t = type { ptr, ptr, i32, i32, i32 }
%struct.anon = type { ptr, ptr, ptr, i32, i32 }
%struct.dt_act_on_cache_t = type { ptr, i32, i32, i32, i32, ptr, i32, i32 }
%struct.anon.0 = type { ptr, ptr, ptr, ptr, ptr, ptr }
%struct.anon.1 = type { i32, i32, i32 }
%struct.anon.2 = type { %struct.anon.3, %struct.anon.4, %struct.anon.5, %struct.anon.6, %struct.anon.7, %struct.anon.8, %struct.anon.9, %struct.anon.10, %struct.anon.11, %struct.anon.12, %struct.anon.13, %struct.anon.14 }
%struct.anon.3 = type { ptr, ptr }
%struct.anon.4 = type { ptr, ptr }
%struct.anon.5 = type { ptr, ptr, ptr, ptr }
%struct.anon.6 = type { ptr, ptr }
%struct.anon.7 = type { ptr }
%struct.anon.8 = type { ptr, ptr, ptr, ptr, ptr }
%struct.anon.9 = type { ptr }
%struct.anon.10 = type { ptr, ptr }
%struct.anon.11 = type { ptr, ptr, ptr, ptr, ptr, ptr, ptr, ptr, ptr, ptr, ptr, ptr }
%struct.anon.12 = type { ptr, ptr, ptr, ptr }
%struct.anon.13 = type { ptr }
%struct.anon.14 = type { ptr, ptr }

@darktable = external global %struct.darktable_t, align 8
@.str.40 = private unnamed_addr constant [14 x i8] c"paste history\00", align 1

; Function Attrs: nounwind uwtable
define void @dt_control_paste_parts_history(ptr noundef %0) #0 {
  %2 = alloca ptr, align 8
  %3 = alloca i32, align 4
  store ptr %0, ptr %2, align 8, !tbaa !60
  %4 = load ptr, ptr getelementptr inbounds nuw (%struct.darktable_t, ptr @darktable, i32 0, i32 11), align 8, !tbaa !121
  %5 = getelementptr inbounds nuw %struct.dt_view_manager_t, ptr %4, i32 0, i32 3
  %6 = getelementptr inbounds nuw %struct.dt_history_copy_item_t, ptr %5, i32 0, i32 2
  %7 = load i32, ptr %6, align 8, !tbaa !122
  %8 = icmp sgt i32 %7, 0
  br i1 %8, label %11, label %9

9:                                                ; preds = %1
  %10 = load ptr, ptr %2, align 8, !tbaa !60
  call void @g_list_free(ptr noundef %10)
  br label %26

11:                                               ; preds = %1
  call void @llvm.lifetime.start.p0(i64 4, ptr %3) #14
  %12 = load ptr, ptr getelementptr inbounds nuw (%struct.darktable_t, ptr @darktable, i32 0, i32 11), align 8, !tbaa !121
  %13 = getelementptr inbounds nuw %struct.dt_view_manager_t, ptr %12, i32 0, i32 3
  %14 = load ptr, ptr getelementptr inbounds nuw (%struct.darktable_t, ptr @darktable, i32 0, i32 11), align 8, !tbaa !121
  %15 = getelementptr inbounds nuw %struct.dt_view_manager_t, ptr %14, i32 0, i32 3
  %16 = getelementptr inbounds nuw %struct.dt_history_copy_item_t, ptr %15, i32 0, i32 2
  %17 = load i32, ptr %16, align 8, !tbaa !122
  %18 = call i32 @dt_gui_hist_dialog_new(ptr noundef %13, i32 noundef %17, i32 noundef 0)
  store i32 %18, ptr %3, align 4, !tbaa !50
  %19 = load i32, ptr %3, align 4, !tbaa !50
  %20 = icmp eq i32 %19, -5
  br i1 %20, label %21, label %23

21:                                               ; preds = %11
  %22 = load ptr, ptr %2, align 8, !tbaa !60
  call void @_add_history_job(ptr noundef %22, ptr noundef @.str.40, ptr noundef @_control_paste_history_job_run, ptr noundef null)
  br label %25

23:                                               ; preds = %11
  %24 = load ptr, ptr %2, align 8, !tbaa !60
  call void @g_list_free(ptr noundef %24)
  br label %25

25:                                               ; preds = %23, %21
  call void @llvm.lifetime.end.p0(i64 4, ptr %3) #14
  br label %26

26:                                               ; preds = %25, %9
  ret void
}