; Function Attrs: nounwind uwtable
define void @dt_control_paste_parts_history(ptr noundef %0) local_unnamed_addr #0 {
  %2 = load ptr, ptr getelementptr inbounds nuw (i8, ptr @darktable, i64 80), align 8, !tbaa !109
  %3 = getelementptr inbounds nuw i8, ptr %2, i64 40
  %4 = load i32, ptr %3, align 8, !tbaa !110
  %5 = icmp sgt i32 %4, 0
  br i1 %5, label %7, label %6

6:                                                ; preds = %1
  tail call void @g_list_free(ptr noundef %0) #17
  br label %13

7:                                                ; preds = %1
  %8 = getelementptr inbounds nuw i8, ptr %2, i64 24
  %9 = tail call i32 @dt_gui_hist_dialog_new(ptr noundef nonnull %8, i32 noundef %4, i32 noundef 0) #17
  %10 = icmp eq i32 %9, -5
  br i1 %10, label %11, label %12

11:                                               ; preds = %7
  tail call fastcc void @_add_history_job(ptr noundef %0, ptr noundef nonnull @.str.40, ptr noundef nonnull @_control_paste_history_job_run, ptr noundef null)
  br label %13

12:                                               ; preds = %7
  tail call void @g_list_free(ptr noundef %0) #17
  br label %13

13:                                               ; preds = %11, %12, %6
  ret void
}